; Function Attrs: mustprogress nounwind uwtable
define dso_local noundef ptr @_ZN5clang17CXXDestructorDecl6CreateERNS_10ASTContextEPNS_13CXXRecordDeclENS_14SourceLocationERKNS_19DeclarationNameInfoENS_8QualTypeEPNS_14TypeSourceInfoEbbbNS_17ConstexprSpecKindEPNS_4ExprE(ptr noundef nonnull align 8 dereferenceable(23096) %0, ptr noundef %1, i32 %2, ptr noundef nonnull align 8 dereferenceable(24) %3, i64 %4, ptr noundef %5, i1 noundef zeroext %6, i1 noundef zeroext %7, i1 noundef zeroext %8, i32 noundef %9, ptr noundef %10) local_unnamed_addr #1 align 2 {
  %12 = icmp eq ptr %1, null
  %13 = getelementptr inbounds nuw i8, ptr %1, i64 64
  %spec.select = select i1 %12, ptr null, ptr %13
  %14 = tail call noundef ptr @_ZN5clang4DeclnwEmRKNS_10ASTContextEPNS_11DeclContextEm(i64 noundef 184, ptr noundef nonnull align 8 dereferenceable(23096) %0, ptr noundef %spec.select, i64 noundef 0) #25
  tail call void @_ZN5clang12FunctionDeclC2ENS_4Decl4KindERNS_10ASTContextEPNS_11DeclContextENS_14SourceLocationERKNS_19DeclarationNameInfoENS_8QualTypeEPNS_14TypeSourceInfoENS_12StorageClassEbbNS_17ConstexprSpecKindEPNS_4ExprE(ptr noundef nonnull align 8 dereferenceable(184) %14, i32 noundef 33, ptr noundef nonnull align 8 dereferenceable(23096) %0, ptr noundef %spec.select, i32 %2, ptr noundef nonnull align 8 dereferenceable(24) %3, i64 %4, ptr noundef %5, i32 noundef 0, i1 noundef zeroext %6, i1 noundef zeroext %7, i32 noundef %9, ptr noundef %10) #25
  store ptr getelementptr inbounds nuw inrange(-16, 104) (i8, ptr @_ZTVN5clang17CXXDestructorDeclE, i64 16), ptr %14, align 8
  %15 = getelementptr inbounds nuw i8, ptr %14, i64 168
  %16 = getelementptr inbounds nuw i8, ptr %14, i64 28
  tail call void @llvm.memset.p0.i64(ptr noundef nonnull align 8 dereferenceable(16) %15, i8 0, i64 16, i1 false)
  %17 = load i32, ptr %16, align 4
  %18 = select i1 %8, i32 512, i32 0
  %19 = and i32 %17, -513
  %20 = or disjoint i32 %19, %18
  store i32 %20, ptr %16, align 4
  ret ptr %14
}